target datalayout = "e-m:e-p270:32:32-p271:32:32-p272:64:64-i64:64-i128:128-f80:128-n8:16:32:64-S128"
target triple = "x86_64-pc-linux-gnu"

%struct.Abc_Ntk_t_ = type { i32, i32, ptr, ptr, ptr, ptr, ptr, ptr, ptr, ptr, ptr, ptr, ptr, [11 x i32], i32, i32, i32, i32, ptr, i32, ptr, ptr, i32, i32, i32, double, i32, %struct.Vec_Int_t_, ptr, ptr, ptr, ptr, ptr, float, i32, ptr, ptr, ptr, ptr, ptr, ptr, ptr, ptr, ptr, ptr, ptr, ptr, ptr, ptr, ptr, ptr, ptr, ptr, ptr, ptr, ptr, ptr }
%struct.Vec_Int_t_ = type { i32, i32, ptr }
%struct.Abc_Obj_t_ = type { ptr, ptr, i32, i32, %struct.Vec_Int_t_, %struct.Vec_Int_t_, %union.anon, %union.anon.0 }
%union.anon = type { ptr }
%union.anon.0 = type { ptr }
%struct.Vec_Ptr_t_ = type { i32, i32, ptr }

@.str.22 = private unnamed_addr constant [44 x i8] c"Networks have different number of latches.\0A\00", align 1
@.str.23 = private unnamed_addr constant [68 x i8] c"Box #%d is different in network 1 ( \22%s\22) and in network 2 (\22%s\22).\0A\00", align 1

; Function Attrs: inlinehint nounwind uwtable
define internal ptr @Vec_PtrEntry(ptr noundef %0, i32 noundef %1) #3 {
  %3 = alloca ptr, align 8
  %4 = alloca i32, align 4
  store ptr %0, ptr %3, align 8, !tbaa !58
  store i32 %1, ptr %4, align 4, !tbaa !27
  %5 = load ptr, ptr %3, align 8, !tbaa !58
  %6 = getelementptr inbounds nuw %struct.Vec_Ptr_t_, ptr %5, i32 0, i32 2
  %7 = load ptr, ptr %6, align 8, !tbaa !71
  %8 = load i32, ptr %4, align 4, !tbaa !27
  %9 = sext i32 %8 to i64
  %10 = getelementptr inbounds ptr, ptr %7, i64 %9
  %11 = load ptr, ptr %10, align 8, !tbaa !72
  ret ptr %11
}

; Function Attrs: inlinehint nounwind uwtable
define internal ptr @Abc_ObjFanout0(ptr noundef %0) #3 {
  %2 = alloca ptr, align 8
  store ptr %0, ptr %2, align 8, !tbaa !29
  %3 = load ptr, ptr %2, align 8, !tbaa !29
  %4 = getelementptr inbounds nuw %struct.Abc_Obj_t_, ptr %3, i32 0, i32 0
  %5 = load ptr, ptr %4, align 8, !tbaa !44
  %6 = getelementptr inbounds nuw %struct.Abc_Ntk_t_, ptr %5, i32 0, i32 5
  %7 = load ptr, ptr %6, align 8, !tbaa !28
  %8 = getelementptr inbounds nuw %struct.Vec_Ptr_t_, ptr %7, i32 0, i32 2
  %9 = load ptr, ptr %8, align 8, !tbaa !71
  %10 = load ptr, ptr %2, align 8, !tbaa !29
  %11 = getelementptr inbounds nuw %struct.Abc_Obj_t_, ptr %10, i32 0, i32 5
  %12 = getelementptr inbounds nuw %struct.Vec_Int_t_, ptr %11, i32 0, i32 2
  %13 = load ptr, ptr %12, align 8, !tbaa !68
  %14 = getelementptr inbounds i32, ptr %13, i64 0
  %15 = load i32, ptr %14, align 4, !tbaa !27
  %16 = sext i32 %15 to i64
  %17 = getelementptr inbounds ptr, ptr %9, i64 %16
  %18 = load ptr, ptr %17, align 8, !tbaa !72
  ret ptr %18
}

; Function Attrs: inlinehint nounwind uwtable
define internal ptr @Abc_NtkBox(ptr noundef %0, i32 noundef %1) #3 {
  %3 = alloca ptr, align 8
  %4 = alloca i32, align 4
  store ptr %0, ptr %3, align 8, !tbaa !3
  store i32 %1, ptr %4, align 4, !tbaa !27
  %5 = load ptr, ptr %3, align 8, !tbaa !3
  %6 = getelementptr inbounds nuw %struct.Abc_Ntk_t_, ptr %5, i32 0, i32 11
  %7 = load ptr, ptr %6, align 8, !tbaa !35
  %8 = load i32, ptr %4, align 4, !tbaa !27
  %9 = call ptr @Vec_PtrEntry(ptr noundef %7, i32 noundef %8)
  ret ptr %9
}

; Function Attrs: inlinehint nounwind uwtable
define internal i32 @Vec_PtrSize(ptr noundef %0) #3 {
  %2 = alloca ptr, align 8
  store ptr %0, ptr %2, align 8, !tbaa !58
  %3 = load ptr, ptr %2, align 8, !tbaa !58
  %4 = getelementptr inbounds nuw %struct.Vec_Ptr_t_, ptr %3, i32 0, i32 1
  %5 = load i32, ptr %4, align 4, !tbaa !59
  ret i32 %5
}

; Function Attrs: inlinehint nounwind uwtable
define internal i32 @Abc_NtkBoxNum(ptr noundef %0) #3 {
  %2 = alloca ptr, align 8
  store ptr %0, ptr %2, align 8, !tbaa !3
  %3 = load ptr, ptr %2, align 8, !tbaa !3
  %4 = getelementptr inbounds nuw %struct.Abc_Ntk_t_, ptr %3, i32 0, i32 11
  %5 = load ptr, ptr %4, align 8, !tbaa !35
  %6 = call i32 @Vec_PtrSize(ptr noundef %5)
  ret i32 %6
}

; Function Attrs: nounwind uwtable
define i32 @Abc_NtkCompareBoxes(ptr noundef %0, ptr noundef %1, i32 noundef %2) #0 {
  %4 = alloca i32, align 4
  %5 = alloca ptr, align 8
  %6 = alloca ptr, align 8
  %7 = alloca i32, align 4
  %8 = alloca ptr, align 8
  %9 = alloca i32, align 4
  %10 = alloca i32, align 4
  store ptr %0, ptr %5, align 8, !tbaa !3
  store ptr %1, ptr %6, align 8, !tbaa !3
  store i32 %2, ptr %7, align 4, !tbaa !27
  call void @llvm.lifetime.start.p0(i64 8, ptr %8) #8
  call void @llvm.lifetime.start.p0(i64 4, ptr %9) #8
  %11 = load i32, ptr %7, align 4, !tbaa !27
  %12 = icmp ne i32 %11, 0
  br i1 %12, label %14, label %13

13:                                               ; preds = %3
  store i32 1, ptr %4, align 4
  store i32 1, ptr %10, align 4
  br label %63

14:                                               ; preds = %3
  %15 = load ptr, ptr %5, align 8, !tbaa !3
  %16 = call i32 @Abc_NtkBoxNum(ptr noundef %15)
  %17 = load ptr, ptr %6, align 8, !tbaa !3
  %18 = call i32 @Abc_NtkBoxNum(ptr noundef %17)
  %19 = icmp ne i32 %16, %18
  br i1 %19, label %20, label %22

20:                                               ; preds = %14
  %21 = call i32 (ptr, ...) @printf(ptr noundef @.str.22)
  store i32 0, ptr %4, align 4
  store i32 1, ptr %10, align 4
  br label %63

22:                                               ; preds = %14
  store i32 0, ptr %9, align 4, !tbaa !27
  br label %23

23:                                               ; preds = %59, %22
  %24 = load i32, ptr %9, align 4, !tbaa !27
  %25 = load ptr, ptr %5, align 8, !tbaa !3
  %26 = getelementptr inbounds nuw %struct.Abc_Ntk_t_, ptr %25, i32 0, i32 11
  %27 = load ptr, ptr %26, align 8, !tbaa !35
  %28 = call i32 @Vec_PtrSize(ptr noundef %27)
  %29 = icmp slt i32 %24, %28
  br i1 %29, label %30, label %34

30:                                               ; preds = %23
  %31 = load ptr, ptr %5, align 8, !tbaa !3
  %32 = load i32, ptr %9, align 4, !tbaa !27
  %33 = call ptr @Abc_NtkBox(ptr noundef %31, i32 noundef %32)
  store ptr %33, ptr %8, align 8, !tbaa !29
  br label %34

34:                                               ; preds = %30, %23
  %35 = phi i1 [ false, %23 ], [ true, %30 ]
  br i1 %35, label %36, label %62

36:                                               ; preds = %34
  %37 = load ptr, ptr %8, align 8, !tbaa !29
  %38 = call ptr @Abc_ObjFanout0(ptr noundef %37)
  %39 = call ptr @Abc_ObjName(ptr noundef %38)
  %40 = load ptr, ptr %6, align 8, !tbaa !3
  %41 = load i32, ptr %9, align 4, !tbaa !27
  %42 = call ptr @Abc_NtkBox(ptr noundef %40, i32 noundef %41)
  %43 = call ptr @Abc_ObjFanout0(ptr noundef %42)
  %44 = call ptr @Abc_ObjName(ptr noundef %43)
  %45 = call i32 @strcmp(ptr noundef %39, ptr noundef %44) #9
  %46 = icmp ne i32 %45, 0
  br i1 %46, label %47, label %58

47:                                               ; preds = %36
  %48 = load i32, ptr %9, align 4, !tbaa !27
  %49 = load ptr, ptr %8, align 8, !tbaa !29
  %50 = call ptr @Abc_ObjFanout0(ptr noundef %49)
  %51 = call ptr @Abc_ObjName(ptr noundef %50)
  %52 = load ptr, ptr %6, align 8, !tbaa !3
  %53 = load i32, ptr %9, align 4, !tbaa !27
  %54 = call ptr @Abc_NtkBox(ptr noundef %52, i32 noundef %53)
  %55 = call ptr @Abc_ObjFanout0(ptr noundef %54)
  %56 = call ptr @Abc_ObjName(ptr noundef %55)
  %57 = call i32 (ptr, ...) @printf(ptr noundef @.str.23, i32 noundef %48, ptr noundef %51, ptr noundef %56)
  store i32 0, ptr %4, align 4
  store i32 1, ptr %10, align 4
  br label %63

58:                                               ; preds = %36
  br label %59

59:                                               ; preds = %58
  %60 = load i32, ptr %9, align 4, !tbaa !27
  %61 = add nsw i32 %60, 1
  store i32 %61, ptr %9, align 4, !tbaa !27
  br label %23, !llvm.loop !76

62:                                               ; preds = %34
  store i32 1, ptr %4, align 4
  store i32 1, ptr %10, align 4
  br label %63

63:                                               ; preds = %62, %47, %20, %13
  call void @llvm.lifetime.end.p0(i64 4, ptr %9) #8
  call void @llvm.lifetime.end.p0(i64 8, ptr %8) #8
  %64 = load i32, ptr %4, align 4
  ret i32 %64
}