; Function Attrs: nounwind uwtable
define range(i32 0, 2) i32 @Abc_NtkCompareBoxes(ptr noundef readonly captures(none) %0, ptr noundef readonly captures(none) %1, i32 noundef %2) local_unnamed_addr #0 {
  %.not = icmp eq i32 %2, 0
  br i1 %.not, label %.critedge, label %4

4:                                                ; preds = %3
  %5 = getelementptr i8, ptr %0, i64 80
  %.val18 = load ptr, ptr %5, align 8, !tbaa !28
  %6 = getelementptr i8, ptr %.val18, i64 4
  %.val18.val = load i32, ptr %6, align 4, !tbaa !30
  %7 = getelementptr i8, ptr %1, i64 80
  %.val19 = load ptr, ptr %7, align 8, !tbaa !28
  %8 = getelementptr i8, ptr %.val19, i64 4
  %.val19.val = load i32, ptr %8, align 4, !tbaa !30
  %.not16 = icmp eq i32 %.val18.val, %.val19.val
  br i1 %.not16, label %.preheader, label %10

.preheader:                                       ; preds = %4
  %9 = icmp sgt i32 %.val18.val, 0
  br i1 %9, label %.lr.ph, label %.critedge

10:                                               ; preds = %4
  %puts = tail call i32 @puts(ptr nonnull dereferenceable(1) @str)
  br label %.critedge

.lr.ph:                                           ; preds = %.preheader, %53
  %indvars.iv = phi i64 [ %indvars.iv.next, %53 ], [ 0, %.preheader ]
  %11 = phi ptr [ %54, %53 ], [ %.val18, %.preheader ]
  %12 = getelementptr i8, ptr %11, i64 8
  %.val30.val = load ptr, ptr %12, align 8, !tbaa !38
  %13 = getelementptr inbounds nuw ptr, ptr %.val30.val, i64 %indvars.iv
  %14 = load ptr, ptr %13, align 8, !tbaa !39
  %.val20 = load ptr, ptr %14, align 8, !tbaa !40
  %15 = getelementptr i8, ptr %14, i64 48
  %.val21 = load ptr, ptr %15, align 8, !tbaa !43
  %16 = getelementptr i8, ptr %.val20, i64 32
  %.val20.val = load ptr, ptr %16, align 8, !tbaa !44
  %.val21.val = load i32, ptr %.val21, align 4, !tbaa !29
  %17 = getelementptr i8, ptr %.val20.val, i64 8
  %.val20.val.val = load ptr, ptr %17, align 8, !tbaa !38
  %18 = sext i32 %.val21.val to i64
  %19 = getelementptr inbounds ptr, ptr %.val20.val.val, i64 %18
  %20 = load ptr, ptr %19, align 8, !tbaa !39
  %21 = tail call ptr @Abc_ObjName(ptr noundef %20) #11
  %.val29 = load ptr, ptr %7, align 8, !tbaa !28
  %22 = getelementptr i8, ptr %.val29, i64 8
  %.val29.val = load ptr, ptr %22, align 8, !tbaa !38
  %23 = getelementptr inbounds nuw ptr, ptr %.val29.val, i64 %indvars.iv
  %24 = load ptr, ptr %23, align 8, !tbaa !39
  %.val22 = load ptr, ptr %24, align 8, !tbaa !40
  %25 = getelementptr i8, ptr %24, i64 48
  %.val23 = load ptr, ptr %25, align 8, !tbaa !43
  %26 = getelementptr i8, ptr %.val22, i64 32
  %.val22.val = load ptr, ptr %26, align 8, !tbaa !44
  %.val23.val = load i32, ptr %.val23, align 4, !tbaa !29
  %27 = getelementptr i8, ptr %.val22.val, i64 8
  %.val22.val.val = load ptr, ptr %27, align 8, !tbaa !38
  %28 = sext i32 %.val23.val to i64
  %29 = getelementptr inbounds ptr, ptr %.val22.val.val, i64 %28
  %30 = load ptr, ptr %29, align 8, !tbaa !39
  %31 = tail call ptr @Abc_ObjName(ptr noundef %30) #11
  %32 = tail call i32 @strcmp(ptr noundef nonnull dereferenceable(1) %21, ptr noundef nonnull dereferenceable(1) %31) #12
  %.not17 = icmp eq i32 %32, 0
  br i1 %.not17, label %53, label %33

33:                                               ; preds = %.lr.ph
  %34 = getelementptr i8, ptr %14, i64 48
  %35 = trunc nuw nsw i64 %indvars.iv to i32
  %.val24 = load ptr, ptr %14, align 8, !tbaa !40
  %.val25 = load ptr, ptr %34, align 8, !tbaa !43
  %36 = getelementptr i8, ptr %.val24, i64 32
  %.val24.val = load ptr, ptr %36, align 8, !tbaa !44
  %.val25.val = load i32, ptr %.val25, align 4, !tbaa !29
  %37 = getelementptr i8, ptr %.val24.val, i64 8
  %.val24.val.val = load ptr, ptr %37, align 8, !tbaa !38
  %38 = sext i32 %.val25.val to i64
  %39 = getelementptr inbounds ptr, ptr %.val24.val.val, i64 %38
  %40 = load ptr, ptr %39, align 8, !tbaa !39
  %41 = tail call ptr @Abc_ObjName(ptr noundef %40) #11
  %.val28 = load ptr, ptr %7, align 8, !tbaa !28
  %42 = getelementptr i8, ptr %.val28, i64 8
  %.val28.val = load ptr, ptr %42, align 8, !tbaa !38
  %43 = getelementptr inbounds nuw ptr, ptr %.val28.val, i64 %indvars.iv
  %44 = load ptr, ptr %43, align 8, !tbaa !39
  %.val26 = load ptr, ptr %44, align 8, !tbaa !40
  %45 = getelementptr i8, ptr %44, i64 48
  %.val27 = load ptr, ptr %45, align 8, !tbaa !43
  %46 = getelementptr i8, ptr %.val26, i64 32
  %.val26.val = load ptr, ptr %46, align 8, !tbaa !44
  %.val27.val = load i32, ptr %.val27, align 4, !tbaa !29
  %47 = getelementptr i8, ptr %.val26.val, i64 8
  %.val26.val.val = load ptr, ptr %47, align 8, !tbaa !38
  %48 = sext i32 %.val27.val to i64
  %49 = getelementptr inbounds ptr, ptr %.val26.val.val, i64 %48
  %50 = load ptr, ptr %49, align 8, !tbaa !39
  %51 = tail call ptr @Abc_ObjName(ptr noundef %50) #11
  %52 = tail call i32 (ptr, ...) @printf(ptr noundef nonnull dereferenceable(1) @.str.23, i32 noundef %35, ptr noundef %41, ptr noundef %51)
  br label %.critedge

53:                                               ; preds = %.lr.ph
  %indvars.iv.next = add nuw nsw i64 %indvars.iv, 1
  %54 = load ptr, ptr %5, align 8, !tbaa !28
  %55 = getelementptr i8, ptr %54, i64 4
  %.val = load i32, ptr %55, align 4, !tbaa !30
  %56 = sext i32 %.val to i64
  %57 = icmp slt i64 %indvars.iv.next, %56
  br i1 %57, label %.lr.ph, label %.critedge, !llvm.loop !71

.critedge:                                        ; preds = %53, %.preheader, %3, %33, %10
  %.015 = phi i32 [ 0, %10 ], [ 0, %33 ], [ 1, %3 ], [ 1, %.preheader ], [ 1, %53 ]
  ret i32 %.015
}